; Function Attrs: null_pointer_is_valid sspstrong uwtable
define internal i32 @dissect_ContentIdentifier_PDU(ptr noundef %0, ptr noundef %1, ptr noundef %2, ptr readnone captures(none) %3) #0 {
  %5 = alloca %struct._asn1_ctx_t, align 8
  call void @llvm.lifetime.start.p0(i64 208, ptr nonnull %5) #5
  call void @asn1_ctx_init(ptr noundef nonnull %5, i32 noundef 0, i1 noundef zeroext true, ptr noundef %1)
  %6 = load i32, ptr @hf_p1_ContentIdentifier_PDU, align 4
  %7 = call i32 @dissect_ber_tagged_type(i1 noundef zeroext false, ptr noundef nonnull %5, ptr noundef %2, ptr noundef %0, i32 noundef 0, i32 noundef %6, i8 noundef signext 1, i32 noundef 10, i1 noundef zeroext true, ptr noundef nonnull @dissect_p1_PrintableString_SIZE_1_ub_content_id_length)
  call void @llvm.lifetime.end.p0(i64 208, ptr nonnull %5) #5
  ret i32 %7
}